target datalayout = "e-m:e-p270:32:32-p271:32:32-p272:64:64-i64:64-i128:128-f80:128-n8:16:32:64-S128"
target triple = "x86_64-pc-linux-gnu"

%struct.Agsym_s = type { %struct.dtlink_s_, ptr, ptr, i32, i8, i8, i8 }
%struct.dtlink_s_ = type { ptr, %union.anon.0 }
%union.anon.0 = type { ptr }
%struct.Agattr_s = type { %struct.Agrec_s, ptr, ptr }
%struct.Agrec_s = type { ptr, ptr }
%struct.dt_s_ = type { ptr, ptr, %struct.Dtdata_t, ptr, i32, ptr, ptr, ptr }
%struct.Dtdata_t = type { i32, ptr, %union.anon, i32, i32, i32 }
%union.anon = type { ptr }
%struct.Agdatadict_s = type { %struct.Agrec_s, %struct.anon }
%struct.anon = type { ptr, ptr, ptr }
%struct.Agobj_s = type { %struct.Agtag_s, ptr }
%struct.Agtag_s = type { i32, i64 }

@DataDictName = internal global [13 x i8] c"_AG_datadict\00", align 1
@AgDataRecName = global ptr @.str, align 8
@stderr = external global ptr, align 8
@.str.5 = private unnamed_addr constant [58 x i8] c"integer overflow when trying to allocate %zu * %zu bytes\0A\00", align 1
@.str.6 = private unnamed_addr constant [49 x i8] c"out of memory when trying to allocate %zu bytes\0A\00", align 1
@.str.7 = private unnamed_addr constant [27 x i8] c"agdictof: unknown kind %d\0A\00", align 1

; Function Attrs: inlinehint noreturn nounwind uwtable
define internal void @graphviz_exit(i32 noundef %0) #7 {
  %2 = alloca i32, align 4
  store i32 %0, ptr %2, align 4, !tbaa !45
  %3 = load i32, ptr %2, align 4, !tbaa !45
  call void @exit(i32 noundef %3) #12
  unreachable
}

; Function Attrs: inlinehint nounwind uwtable
define internal ptr @gv_calloc(i64 noundef %0, i64 noundef %1) #4 {
  %3 = alloca i64, align 8
  %4 = alloca i64, align 8
  %5 = alloca ptr, align 8
  store i64 %0, ptr %3, align 8, !tbaa !67
  store i64 %1, ptr %4, align 8, !tbaa !67
  %6 = load i64, ptr %3, align 8, !tbaa !67
  %7 = icmp ugt i64 %6, 0
  br i1 %7, label %8, label %18

8:                                                ; preds = %2
  %9 = load i64, ptr %3, align 8, !tbaa !67
  %10 = udiv i64 -1, %9
  %11 = load i64, ptr %4, align 8, !tbaa !67
  %12 = icmp ult i64 %10, %11
  br i1 %12, label %13, label %18

13:                                               ; preds = %8
  %14 = load ptr, ptr @stderr, align 8, !tbaa !63
  %15 = load i64, ptr %3, align 8, !tbaa !67
  %16 = load i64, ptr %4, align 8, !tbaa !67
  %17 = call i32 (ptr, ptr, ...) @fprintf(ptr noundef %14, ptr noundef @.str.5, i64 noundef %15, i64 noundef %16) #11
  call void @graphviz_exit(i32 noundef 1) #14
  unreachable

18:                                               ; preds = %8, %2
  call void @llvm.lifetime.start.p0(i64 8, ptr %5) #11
  %19 = load i64, ptr %3, align 8, !tbaa !67
  %20 = load i64, ptr %4, align 8, !tbaa !67
  %21 = call noalias ptr @calloc(i64 noundef %19, i64 noundef %20) #15
  store ptr %21, ptr %5, align 8, !tbaa !3
  %22 = load i64, ptr %3, align 8, !tbaa !67
  %23 = icmp ugt i64 %22, 0
  br i1 %23, label %24, label %36

24:                                               ; preds = %18
  %25 = load i64, ptr %4, align 8, !tbaa !67
  %26 = icmp ugt i64 %25, 0
  br i1 %26, label %27, label %36

27:                                               ; preds = %24
  %28 = load ptr, ptr %5, align 8, !tbaa !3
  %29 = icmp eq ptr %28, null
  br i1 %29, label %30, label %36

30:                                               ; preds = %27
  %31 = load ptr, ptr @stderr, align 8, !tbaa !63
  %32 = load i64, ptr %3, align 8, !tbaa !67
  %33 = load i64, ptr %4, align 8, !tbaa !67
  %34 = mul i64 %32, %33
  %35 = call i32 (ptr, ptr, ...) @fprintf(ptr noundef %31, ptr noundef @.str.6, i64 noundef %34) #11
  call void @graphviz_exit(i32 noundef 1) #14
  unreachable

36:                                               ; preds = %27, %24, %18
  %37 = load ptr, ptr %5, align 8, !tbaa !3
  call void @llvm.lifetime.end.p0(i64 8, ptr %5) #11
  ret ptr %37
}

; Function Attrs: nounwind uwtable
define internal i32 @topdictsize(ptr noundef %0) #0 {
  %2 = alloca ptr, align 8
  %3 = alloca ptr, align 8
  store ptr %0, ptr %2, align 8, !tbaa !56
  call void @llvm.lifetime.start.p0(i64 8, ptr %3) #11
  %4 = load ptr, ptr %2, align 8, !tbaa !56
  %5 = call ptr @agraphof(ptr noundef %4)
  %6 = call ptr @agroot(ptr noundef %5)
  %7 = load ptr, ptr %2, align 8, !tbaa !56
  %8 = getelementptr inbounds nuw %struct.Agobj_s, ptr %7, i32 0, i32 0
  %9 = load i32, ptr %8, align 8
  %10 = and i32 %9, 3
  %11 = call ptr @agdictof(ptr noundef %6, i32 noundef %10)
  store ptr %11, ptr %3, align 8, !tbaa !40
  %12 = load ptr, ptr %3, align 8, !tbaa !40
  %13 = icmp ne ptr %12, null
  br i1 %13, label %14, label %17

14:                                               ; preds = %1
  %15 = load ptr, ptr %3, align 8, !tbaa !40
  %16 = call i32 @dtsize(ptr noundef %15)
  br label %18

17:                                               ; preds = %1
  br label %18

18:                                               ; preds = %17, %14
  %19 = phi i32 [ %16, %14 ], [ 0, %17 ]
  call void @llvm.lifetime.end.p0(i64 8, ptr %3) #11
  ret i32 %19
}

; Function Attrs: nounwind uwtable
define internal ptr @agmakeattrs(ptr noundef %0, ptr noundef %1) #0 {
  %3 = alloca ptr, align 8
  %4 = alloca ptr, align 8
  %5 = alloca i32, align 4
  %6 = alloca ptr, align 8
  %7 = alloca ptr, align 8
  %8 = alloca ptr, align 8
  store ptr %0, ptr %3, align 8, !tbaa !9
  store ptr %1, ptr %4, align 8, !tbaa !3
  call void @llvm.lifetime.start.p0(i64 4, ptr %5) #11
  call void @llvm.lifetime.start.p0(i64 8, ptr %6) #11
  call void @llvm.lifetime.start.p0(i64 8, ptr %7) #11
  call void @llvm.lifetime.start.p0(i64 8, ptr %8) #11
  %9 = load ptr, ptr %4, align 8, !tbaa !3
  %10 = load ptr, ptr @AgDataRecName, align 8, !tbaa !31
  %11 = call ptr @agbindrec(ptr noundef %9, ptr noundef %10, i32 noundef 32, i32 noundef 0)
  store ptr %11, ptr %6, align 8, !tbaa !32
  %12 = load ptr, ptr %3, align 8, !tbaa !9
  %13 = load ptr, ptr %4, align 8, !tbaa !3
  %14 = getelementptr inbounds nuw %struct.Agobj_s, ptr %13, i32 0, i32 0
  %15 = load i32, ptr %14, align 8
  %16 = and i32 %15, 3
  %17 = call ptr @agdictof(ptr noundef %12, i32 noundef %16)
  store ptr %17, ptr %8, align 8, !tbaa !40
  %18 = load ptr, ptr %6, align 8, !tbaa !32
  %19 = getelementptr inbounds nuw %struct.Agattr_s, ptr %18, i32 0, i32 1
  %20 = load ptr, ptr %19, align 8, !tbaa !34
  %21 = icmp eq ptr %20, null
  br i1 %21, label %22, label %96

22:                                               ; preds = %2
  %23 = load ptr, ptr %3, align 8, !tbaa !9
  %24 = call ptr @agroot(ptr noundef %23)
  %25 = load ptr, ptr %4, align 8, !tbaa !3
  %26 = getelementptr inbounds nuw %struct.Agobj_s, ptr %25, i32 0, i32 0
  %27 = load i32, ptr %26, align 8
  %28 = and i32 %27, 3
  %29 = call ptr @agdictof(ptr noundef %24, i32 noundef %28)
  %30 = load ptr, ptr %6, align 8, !tbaa !32
  %31 = getelementptr inbounds nuw %struct.Agattr_s, ptr %30, i32 0, i32 1
  store ptr %29, ptr %31, align 8, !tbaa !34
  %32 = load ptr, ptr %4, align 8, !tbaa !3
  %33 = call i32 @topdictsize(ptr noundef %32)
  store i32 %33, ptr %5, align 4, !tbaa !45
  %34 = load i32, ptr %5, align 4, !tbaa !45
  %35 = icmp slt i32 %34, 4
  br i1 %35, label %36, label %37

36:                                               ; preds = %22
  store i32 4, ptr %5, align 4, !tbaa !45
  br label %37

37:                                               ; preds = %36, %22
  %38 = load i32, ptr %5, align 4, !tbaa !45
  %39 = sext i32 %38 to i64
  %40 = call ptr @gv_calloc(i64 noundef %39, i64 noundef 8)
  %41 = load ptr, ptr %6, align 8, !tbaa !32
  %42 = getelementptr inbounds nuw %struct.Agattr_s, ptr %41, i32 0, i32 2
  store ptr %40, ptr %42, align 8, !tbaa !51
  %43 = load ptr, ptr %8, align 8, !tbaa !40
  %44 = getelementptr inbounds nuw %struct.dt_s_, ptr %43, i32 0, i32 0
  %45 = load ptr, ptr %44, align 8, !tbaa !41
  %46 = load ptr, ptr %8, align 8, !tbaa !40
  %47 = call ptr %45(ptr noundef %46, ptr noundef null, i32 noundef 128)
  store ptr %47, ptr %7, align 8, !tbaa !7
  br label %48

48:                                               ; preds = %88, %37
  %49 = load ptr, ptr %7, align 8, !tbaa !7
  %50 = icmp ne ptr %49, null
  br i1 %50, label %51, label %95

51:                                               ; preds = %48
  %52 = load ptr, ptr %7, align 8, !tbaa !7
  %53 = getelementptr inbounds nuw %struct.Agsym_s, ptr %52, i32 0, i32 2
  %54 = load ptr, ptr %53, align 8, !tbaa !17
  %55 = call i32 @aghtmlstr(ptr noundef %54)
  %56 = icmp ne i32 %55, 0
  br i1 %56, label %57, label %72

57:                                               ; preds = %51
  %58 = load ptr, ptr %4, align 8, !tbaa !3
  %59 = call ptr @agraphof(ptr noundef %58)
  %60 = load ptr, ptr %7, align 8, !tbaa !7
  %61 = getelementptr inbounds nuw %struct.Agsym_s, ptr %60, i32 0, i32 2
  %62 = load ptr, ptr %61, align 8, !tbaa !17
  %63 = call ptr @agstrdup_html(ptr noundef %59, ptr noundef %62)
  %64 = load ptr, ptr %6, align 8, !tbaa !32
  %65 = getelementptr inbounds nuw %struct.Agattr_s, ptr %64, i32 0, i32 2
  %66 = load ptr, ptr %65, align 8, !tbaa !51
  %67 = load ptr, ptr %7, align 8, !tbaa !7
  %68 = getelementptr inbounds nuw %struct.Agsym_s, ptr %67, i32 0, i32 3
  %69 = load i32, ptr %68, align 8, !tbaa !52
  %70 = sext i32 %69 to i64
  %71 = getelementptr inbounds ptr, ptr %66, i64 %70
  store ptr %63, ptr %71, align 8, !tbaa !31
  br label %87

72:                                               ; preds = %51
  %73 = load ptr, ptr %4, align 8, !tbaa !3
  %74 = call ptr @agraphof(ptr noundef %73)
  %75 = load ptr, ptr %7, align 8, !tbaa !7
  %76 = getelementptr inbounds nuw %struct.Agsym_s, ptr %75, i32 0, i32 2
  %77 = load ptr, ptr %76, align 8, !tbaa !17
  %78 = call ptr @agstrdup(ptr noundef %74, ptr noundef %77)
  %79 = load ptr, ptr %6, align 8, !tbaa !32
  %80 = getelementptr inbounds nuw %struct.Agattr_s, ptr %79, i32 0, i32 2
  %81 = load ptr, ptr %80, align 8, !tbaa !51
  %82 = load ptr, ptr %7, align 8, !tbaa !7
  %83 = getelementptr inbounds nuw %struct.Agsym_s, ptr %82, i32 0, i32 3
  %84 = load i32, ptr %83, align 8, !tbaa !52
  %85 = sext i32 %84 to i64
  %86 = getelementptr inbounds ptr, ptr %81, i64 %85
  store ptr %78, ptr %86, align 8, !tbaa !31
  br label %87

87:                                               ; preds = %72, %57
  br label %88

88:                                               ; preds = %87
  %89 = load ptr, ptr %8, align 8, !tbaa !40
  %90 = getelementptr inbounds nuw %struct.dt_s_, ptr %89, i32 0, i32 0
  %91 = load ptr, ptr %90, align 8, !tbaa !41
  %92 = load ptr, ptr %8, align 8, !tbaa !40
  %93 = load ptr, ptr %7, align 8, !tbaa !7
  %94 = call ptr %91(ptr noundef %92, ptr noundef %93, i32 noundef 8)
  store ptr %94, ptr %7, align 8, !tbaa !7
  br label %48, !llvm.loop !53

95:                                               ; preds = %48
  br label %97

96:                                               ; preds = %2
  br label %97

97:                                               ; preds = %96, %95
  %98 = load ptr, ptr %6, align 8, !tbaa !32
  call void @llvm.lifetime.end.p0(i64 8, ptr %8) #11
  call void @llvm.lifetime.end.p0(i64 8, ptr %7) #11
  call void @llvm.lifetime.end.p0(i64 8, ptr %6) #11
  call void @llvm.lifetime.end.p0(i64 4, ptr %5) #11
  ret ptr %98
}

; Function Attrs: nounwind uwtable
define ptr @agattrrec(ptr noundef %0) #0 {
  %2 = alloca ptr, align 8
  store ptr %0, ptr %2, align 8, !tbaa !3
  %3 = load ptr, ptr %2, align 8, !tbaa !3
  %4 = load ptr, ptr @AgDataRecName, align 8, !tbaa !31
  %5 = call ptr @aggetrec(ptr noundef %3, ptr noundef %4, i32 noundef 0)
  ret ptr %5
}

; Function Attrs: nounwind uwtable
define void @agedgeattr_init(ptr noundef %0, ptr noundef %1) #0 {
  %3 = alloca ptr, align 8
  %4 = alloca ptr, align 8
  %5 = alloca ptr, align 8
  store ptr %0, ptr %3, align 8, !tbaa !9
  store ptr %1, ptr %4, align 8, !tbaa !26
  call void @llvm.lifetime.start.p0(i64 8, ptr %5) #11
  %6 = load ptr, ptr %4, align 8, !tbaa !26
  %7 = call ptr @agattrrec(ptr noundef %6)
  store ptr %7, ptr %5, align 8, !tbaa !32
  %8 = load ptr, ptr %5, align 8, !tbaa !32
  %9 = icmp ne ptr %8, null
  br i1 %9, label %10, label %15

10:                                               ; preds = %2
  %11 = load ptr, ptr %5, align 8, !tbaa !32
  %12 = getelementptr inbounds nuw %struct.Agattr_s, ptr %11, i32 0, i32 1
  %13 = load ptr, ptr %12, align 8, !tbaa !34
  %14 = icmp ne ptr %13, null
  br i1 %14, label %19, label %15

15:                                               ; preds = %10, %2
  %16 = load ptr, ptr %3, align 8, !tbaa !9
  %17 = load ptr, ptr %4, align 8, !tbaa !26
  %18 = call ptr @agmakeattrs(ptr noundef %16, ptr noundef %17)
  br label %19

19:                                               ; preds = %15, %10
  call void @llvm.lifetime.end.p0(i64 8, ptr %5) #11
  ret void
}

; Function Attrs: nounwind uwtable
define void @agnodeattr_init(ptr noundef %0, ptr noundef %1) #0 {
  %3 = alloca ptr, align 8
  %4 = alloca ptr, align 8
  %5 = alloca ptr, align 8
  store ptr %0, ptr %3, align 8, !tbaa !9
  store ptr %1, ptr %4, align 8, !tbaa !24
  call void @llvm.lifetime.start.p0(i64 8, ptr %5) #11
  %6 = load ptr, ptr %4, align 8, !tbaa !24
  %7 = call ptr @agattrrec(ptr noundef %6)
  store ptr %7, ptr %5, align 8, !tbaa !32
  %8 = load ptr, ptr %5, align 8, !tbaa !32
  %9 = icmp ne ptr %8, null
  br i1 %9, label %10, label %15

10:                                               ; preds = %2
  %11 = load ptr, ptr %5, align 8, !tbaa !32
  %12 = getelementptr inbounds nuw %struct.Agattr_s, ptr %11, i32 0, i32 1
  %13 = load ptr, ptr %12, align 8, !tbaa !34
  %14 = icmp ne ptr %13, null
  br i1 %14, label %19, label %15

15:                                               ; preds = %10, %2
  %16 = load ptr, ptr %3, align 8, !tbaa !9
  %17 = load ptr, ptr %4, align 8, !tbaa !24
  %18 = call ptr @agmakeattrs(ptr noundef %16, ptr noundef %17)
  br label %19

19:                                               ; preds = %15, %10
  call void @llvm.lifetime.end.p0(i64 8, ptr %5) #11
  ret void
}

; Function Attrs: nounwind uwtable
define internal void @init_all_attrs(ptr noundef %0) #0 {
  %2 = alloca ptr, align 8
  %3 = alloca ptr, align 8
  %4 = alloca ptr, align 8
  %5 = alloca ptr, align 8
  store ptr %0, ptr %2, align 8, !tbaa !9
  call void @llvm.lifetime.start.p0(i64 8, ptr %3) #11
  call void @llvm.lifetime.start.p0(i64 8, ptr %4) #11
  call void @llvm.lifetime.start.p0(i64 8, ptr %5) #11
  %6 = load ptr, ptr %2, align 8, !tbaa !9
  %7 = call ptr @agroot(ptr noundef %6)
  store ptr %7, ptr %3, align 8, !tbaa !9
  %8 = load ptr, ptr %3, align 8, !tbaa !9
  %9 = load ptr, ptr %3, align 8, !tbaa !9
  %10 = call i32 @agapply(ptr noundef %8, ptr noundef %9, ptr noundef @agraphattr_init_wrapper, ptr noundef null, i32 noundef 1)
  %11 = load ptr, ptr %3, align 8, !tbaa !9
  %12 = call ptr @agfstnode(ptr noundef %11)
  store ptr %12, ptr %4, align 8, !tbaa !24
  br label %13

13:                                               ; preds = %33, %1
  %14 = load ptr, ptr %4, align 8, !tbaa !24
  %15 = icmp ne ptr %14, null
  br i1 %15, label %16, label %37

16:                                               ; preds = %13
  %17 = load ptr, ptr %2, align 8, !tbaa !9
  %18 = load ptr, ptr %4, align 8, !tbaa !24
  call void @agnodeattr_init(ptr noundef %17, ptr noundef %18)
  %19 = load ptr, ptr %3, align 8, !tbaa !9
  %20 = load ptr, ptr %4, align 8, !tbaa !24
  %21 = call ptr @agfstout(ptr noundef %19, ptr noundef %20)
  store ptr %21, ptr %5, align 8, !tbaa !26
  br label %22

22:                                               ; preds = %28, %16
  %23 = load ptr, ptr %5, align 8, !tbaa !26
  %24 = icmp ne ptr %23, null
  br i1 %24, label %25, label %32

25:                                               ; preds = %22
  %26 = load ptr, ptr %2, align 8, !tbaa !9
  %27 = load ptr, ptr %5, align 8, !tbaa !26
  call void @agedgeattr_init(ptr noundef %26, ptr noundef %27)
  br label %28

28:                                               ; preds = %25
  %29 = load ptr, ptr %3, align 8, !tbaa !9
  %30 = load ptr, ptr %5, align 8, !tbaa !26
  %31 = call ptr @agnxtout(ptr noundef %29, ptr noundef %30)
  store ptr %31, ptr %5, align 8, !tbaa !26
  br label %22, !llvm.loop !28

32:                                               ; preds = %22
  br label %33

33:                                               ; preds = %32
  %34 = load ptr, ptr %3, align 8, !tbaa !9
  %35 = load ptr, ptr %4, align 8, !tbaa !24
  %36 = call ptr @agnxtnode(ptr noundef %34, ptr noundef %35)
  store ptr %36, ptr %4, align 8, !tbaa !24
  br label %13, !llvm.loop !30

37:                                               ; preds = %13
  call void @llvm.lifetime.end.p0(i64 8, ptr %5) #11
  call void @llvm.lifetime.end.p0(i64 8, ptr %4) #11
  call void @llvm.lifetime.end.p0(i64 8, ptr %3) #11
  ret void
}

; Function Attrs: nounwind uwtable
define ptr @agdatadict(ptr noundef %0, i1 noundef zeroext %1) #0 {
  %3 = alloca ptr, align 8
  %4 = alloca ptr, align 8
  %5 = alloca i8, align 1
  %6 = alloca ptr, align 8
  %7 = alloca i32, align 4
  store ptr %0, ptr %4, align 8, !tbaa !9
  %8 = zext i1 %1 to i8
  store i8 %8, ptr %5, align 1, !tbaa !18
  call void @llvm.lifetime.start.p0(i64 8, ptr %6) #11
  %9 = load ptr, ptr %4, align 8, !tbaa !9
  %10 = call ptr @aggetrec(ptr noundef %9, ptr noundef @DataDictName, i32 noundef 0)
  store ptr %10, ptr %6, align 8, !tbaa !20
  %11 = load ptr, ptr %6, align 8, !tbaa !20
  %12 = icmp ne ptr %11, null
  br i1 %12, label %16, label %13

13:                                               ; preds = %2
  %14 = load i8, ptr %5, align 1, !tbaa !18, !range !22, !noundef !23
  %15 = trunc i8 %14 to i1
  br i1 %15, label %18, label %16

16:                                               ; preds = %13, %2
  %17 = load ptr, ptr %6, align 8, !tbaa !20
  store ptr %17, ptr %3, align 8
  store i32 1, ptr %7, align 4
  br label %23

18:                                               ; preds = %13
  %19 = load ptr, ptr %4, align 8, !tbaa !9
  call void @init_all_attrs(ptr noundef %19)
  %20 = load ptr, ptr %4, align 8, !tbaa !9
  %21 = call ptr @aggetrec(ptr noundef %20, ptr noundef @DataDictName, i32 noundef 0)
  store ptr %21, ptr %6, align 8, !tbaa !20
  %22 = load ptr, ptr %6, align 8, !tbaa !20
  store ptr %22, ptr %3, align 8
  store i32 1, ptr %7, align 4
  br label %23

23:                                               ; preds = %18, %16
  call void @llvm.lifetime.end.p0(i64 8, ptr %6) #11
  %24 = load ptr, ptr %3, align 8
  ret ptr %24
}

; Function Attrs: nounwind uwtable
define internal ptr @agdictof(ptr noundef %0, i32 noundef %1) #0 {
  %3 = alloca ptr, align 8
  %4 = alloca i32, align 4
  %5 = alloca ptr, align 8
  %6 = alloca ptr, align 8
  store ptr %0, ptr %3, align 8, !tbaa !9
  store i32 %1, ptr %4, align 4, !tbaa !45
  call void @llvm.lifetime.start.p0(i64 8, ptr %5) #11
  call void @llvm.lifetime.start.p0(i64 8, ptr %6) #11
  %7 = load ptr, ptr %3, align 8, !tbaa !9
  %8 = call ptr @agdatadict(ptr noundef %7, i1 noundef zeroext false)
  store ptr %8, ptr %5, align 8, !tbaa !20
  %9 = load ptr, ptr %5, align 8, !tbaa !20
  %10 = icmp ne ptr %9, null
  br i1 %10, label %11, label %31

11:                                               ; preds = %2
  %12 = load i32, ptr %4, align 4, !tbaa !45
  switch i32 %12, label %28 [
    i32 0, label %13
    i32 1, label %18
    i32 3, label %23
    i32 2, label %23
  ]

13:                                               ; preds = %11
  %14 = load ptr, ptr %5, align 8, !tbaa !20
  %15 = getelementptr inbounds nuw %struct.Agdatadict_s, ptr %14, i32 0, i32 1
  %16 = getelementptr inbounds nuw %struct.anon, ptr %15, i32 0, i32 2
  %17 = load ptr, ptr %16, align 8, !tbaa !46
  store ptr %17, ptr %6, align 8, !tbaa !40
  br label %30

18:                                               ; preds = %11
  %19 = load ptr, ptr %5, align 8, !tbaa !20
  %20 = getelementptr inbounds nuw %struct.Agdatadict_s, ptr %19, i32 0, i32 1
  %21 = getelementptr inbounds nuw %struct.anon, ptr %20, i32 0, i32 0
  %22 = load ptr, ptr %21, align 8, !tbaa !49
  store ptr %22, ptr %6, align 8, !tbaa !40
  br label %30

23:                                               ; preds = %11, %11
  %24 = load ptr, ptr %5, align 8, !tbaa !20
  %25 = getelementptr inbounds nuw %struct.Agdatadict_s, ptr %24, i32 0, i32 1
  %26 = getelementptr inbounds nuw %struct.anon, ptr %25, i32 0, i32 1
  %27 = load ptr, ptr %26, align 8, !tbaa !50
  store ptr %27, ptr %6, align 8, !tbaa !40
  br label %30

28:                                               ; preds = %11
  %29 = load i32, ptr %4, align 4, !tbaa !45
  call void (ptr, ...) @agerrorf(ptr noundef @.str.7, i32 noundef %29)
  store ptr null, ptr %6, align 8, !tbaa !40
  br label %30

30:                                               ; preds = %28, %23, %18, %13
  br label %32

31:                                               ; preds = %2
  store ptr null, ptr %6, align 8, !tbaa !40
  br label %32

32:                                               ; preds = %31, %30
  %33 = load ptr, ptr %6, align 8, !tbaa !40
  call void @llvm.lifetime.end.p0(i64 8, ptr %6) #11
  call void @llvm.lifetime.end.p0(i64 8, ptr %5) #11
  ret ptr %33
}

; Function Attrs: nounwind uwtable
define ptr @agnxtattr(ptr noundef %0, i32 noundef %1, ptr noundef %2) #0 {
  %4 = alloca ptr, align 8
  %5 = alloca i32, align 4
  %6 = alloca ptr, align 8
  %7 = alloca ptr, align 8
  %8 = alloca ptr, align 8
  store ptr %0, ptr %4, align 8, !tbaa !9
  store i32 %1, ptr %5, align 4, !tbaa !45
  store ptr %2, ptr %6, align 8, !tbaa !7
  call void @llvm.lifetime.start.p0(i64 8, ptr %7) #11
  call void @llvm.lifetime.start.p0(i64 8, ptr %8) #11
  %9 = load ptr, ptr %4, align 8, !tbaa !9
  %10 = load i32, ptr %5, align 4, !tbaa !45
  %11 = call ptr @agdictof(ptr noundef %9, i32 noundef %10)
  store ptr %11, ptr %7, align 8, !tbaa !40
  %12 = icmp ne ptr %11, null
  br i1 %12, label %13, label %30

13:                                               ; preds = %3
  %14 = load ptr, ptr %6, align 8, !tbaa !7
  %15 = icmp ne ptr %14, null
  br i1 %15, label %16, label %23

16:                                               ; preds = %13
  %17 = load ptr, ptr %7, align 8, !tbaa !40
  %18 = getelementptr inbounds nuw %struct.dt_s_, ptr %17, i32 0, i32 0
  %19 = load ptr, ptr %18, align 8, !tbaa !41
  %20 = load ptr, ptr %7, align 8, !tbaa !40
  %21 = load ptr, ptr %6, align 8, !tbaa !7
  %22 = call ptr %19(ptr noundef %20, ptr noundef %21, i32 noundef 8)
  store ptr %22, ptr %8, align 8, !tbaa !7
  br label %29

23:                                               ; preds = %13
  %24 = load ptr, ptr %7, align 8, !tbaa !40
  %25 = getelementptr inbounds nuw %struct.dt_s_, ptr %24, i32 0, i32 0
  %26 = load ptr, ptr %25, align 8, !tbaa !41
  %27 = load ptr, ptr %7, align 8, !tbaa !40
  %28 = call ptr %26(ptr noundef %27, ptr noundef null, i32 noundef 128)
  store ptr %28, ptr %8, align 8, !tbaa !7
  br label %29

29:                                               ; preds = %23, %16
  br label %31

30:                                               ; preds = %3
  store ptr null, ptr %8, align 8, !tbaa !7
  br label %31

31:                                               ; preds = %30, %29
  %32 = load ptr, ptr %8, align 8, !tbaa !7
  call void @llvm.lifetime.end.p0(i64 8, ptr %8) #11
  call void @llvm.lifetime.end.p0(i64 8, ptr %7) #11
  ret ptr %32
}