; Function Attrs: nounwind uwtable
define ptr @agnxtattr(ptr noundef %0, i32 noundef %1, ptr noundef %2) local_unnamed_addr #0 {
  %4 = tail call ptr @aggetrec(ptr noundef %0, ptr noundef nonnull @DataDictName, i32 noundef 0) #12
  %.not.i.i = icmp eq ptr %4, null
  br i1 %.not.i.i, label %agdictof.exit.thread, label %5

5:                                                ; preds = %3
  %6 = icmp ult i32 %1, 4
  br i1 %6, label %switch.lookup, label %7

7:                                                ; preds = %5
  tail call void (ptr, ...) @agerrorf(ptr noundef nonnull @.str.7, i32 noundef %1) #12
  br label %agdictof.exit.thread

switch.lookup:                                    ; preds = %5
  %8 = zext nneg i32 %1 to i64
  %switch.gep = getelementptr inbounds nuw [4 x i64], ptr @switch.table.agcopyattr, i64 0, i64 %8
  %switch.load = load i64, ptr %switch.gep, align 8
  %9 = getelementptr inbounds nuw i8, ptr %4, i64 %switch.load
  %.0.i = load ptr, ptr %9, align 8, !tbaa !34
  %.not = icmp eq ptr %.0.i, null
  br i1 %.not, label %agdictof.exit.thread, label %10

10:                                               ; preds = %switch.lookup
  %.not10 = icmp eq ptr %2, null
  %11 = load ptr, ptr %.0.i, align 8, !tbaa !25
  br i1 %.not10, label %14, label %12

12:                                               ; preds = %10
  %13 = tail call ptr %11(ptr noundef nonnull %.0.i, ptr noundef nonnull %2, i32 noundef 8) #12
  br label %agdictof.exit.thread

14:                                               ; preds = %10
  %15 = tail call ptr %11(ptr noundef nonnull %.0.i, ptr noundef null, i32 noundef 128) #12
  br label %agdictof.exit.thread

agdictof.exit.thread:                             ; preds = %3, %7, %switch.lookup, %12, %14
  %.0 = phi ptr [ %13, %12 ], [ %15, %14 ], [ null, %switch.lookup ], [ null, %7 ], [ null, %3 ]
  ret ptr %.0
}